target datalayout = "e-m:e-p270:32:32-p271:32:32-p272:64:64-i64:64-i128:128-f80:128-n8:16:32:64-S128"
target triple = "x86_64-pc-linux-gnu"

%"class.icu_77::RegexCompile" = type { ptr, ptr, ptr, ptr, i64, i8, i8, i8, i64, i64, i32, i32, %"struct.icu_77::RegexCompile::RegexPatternChar", [100 x i16], i32, i32, i32, i8, %"class.icu_77::UnicodeString", i64, %"class.icu_77::UVector32", i32, i32, i32, i32, %"class.icu_77::UStack", %"class.icu_77::UStack", i32, ptr }
%"struct.icu_77::RegexCompile::RegexPatternChar" = type { i32, i8 }
%"class.icu_77::UnicodeString" = type { %"class.icu_77::Replaceable", %"union.icu_77::UnicodeString::StackBufferOrFields" }
%"class.icu_77::Replaceable" = type { %"class.icu_77::UObject" }
%"class.icu_77::UObject" = type { ptr }
%"union.icu_77::UnicodeString::StackBufferOrFields" = type { %struct.anon.0, [32 x i8] }
%struct.anon.0 = type { i16, i32, i32, ptr }
%"class.icu_77::UVector32" = type { %"class.icu_77::UObject", i32, i32, i32, ptr }
%"class.icu_77::UStack" = type { %"class.icu_77::UVector" }
%"class.icu_77::UVector" = type { %"class.icu_77::UObject", i32, i32, ptr, ptr, ptr }

; Function Attrs: inlinehint mustprogress nounwind uwtable
define internal noundef signext i8 @_ZL9U_FAILURE10UErrorCode(i32 noundef %0) #2 {
  %2 = alloca i32, align 4
  store i32 %0, ptr %2, align 4, !tbaa !15
  %3 = load i32, ptr %2, align 4, !tbaa !15
  %4 = icmp sgt i32 %3, 0
  %5 = zext i1 %4 to i8
  ret i8 %5
}

; Function Attrs: mustprogress uwtable
define noundef i32 @_ZN6icu_7712RegexCompile7buildOpEii(ptr noundef nonnull align 8 dereferenceable(512) %0, i32 noundef %1, i32 noundef %2) #1 align 2 {
  %4 = alloca i32, align 4
  %5 = alloca ptr, align 8
  %6 = alloca i32, align 4
  %7 = alloca i32, align 4
  store ptr %0, ptr %5, align 8, !tbaa !23
  store i32 %1, ptr %6, align 4, !tbaa !14
  store i32 %2, ptr %7, align 4, !tbaa !14
  %8 = load ptr, ptr %5, align 8
  %9 = getelementptr inbounds nuw %"class.icu_77::RegexCompile", ptr %8, i32 0, i32 1
  %10 = load ptr, ptr %9, align 8, !tbaa !29
  %11 = load i32, ptr %10, align 4, !tbaa !15
  %12 = call noundef signext i8 @_ZL9U_FAILURE10UErrorCode(i32 noundef %11)
  %13 = icmp ne i8 %12, 0
  br i1 %13, label %14, label %15

14:                                               ; preds = %3
  store i32 0, ptr %4, align 4
  br label %47

15:                                               ; preds = %3
  %16 = load i32, ptr %6, align 4, !tbaa !14
  %17 = icmp slt i32 %16, 0
  br i1 %17, label %21, label %18

18:                                               ; preds = %15
  %19 = load i32, ptr %6, align 4, !tbaa !14
  %20 = icmp sgt i32 %19, 255
  br i1 %20, label %21, label %22

21:                                               ; preds = %18, %15
  call void @abort() #15
  unreachable

22:                                               ; preds = %18
  %23 = load i32, ptr %7, align 4, !tbaa !14
  %24 = icmp sgt i32 %23, 16777215
  br i1 %24, label %25, label %26

25:                                               ; preds = %22
  call void @abort() #15
  unreachable

26:                                               ; preds = %22
  %27 = load i32, ptr %7, align 4, !tbaa !14
  %28 = icmp slt i32 %27, 0
  br i1 %28, label %29, label %42

29:                                               ; preds = %26
  %30 = load i32, ptr %6, align 4, !tbaa !14
  %31 = icmp eq i32 %30, 255
  br i1 %31, label %36, label %32

32:                                               ; preds = %29
  %33 = load i32, ptr %6, align 4, !tbaa !14
  %34 = icmp eq i32 %33, 0
  br i1 %34, label %36, label %35

35:                                               ; preds = %32
  call void @abort() #15
  unreachable

36:                                               ; preds = %32, %29
  %37 = load i32, ptr %7, align 4, !tbaa !14
  %38 = lshr i32 %37, 24
  %39 = icmp ne i32 %38, 255
  br i1 %39, label %40, label %41

40:                                               ; preds = %36
  call void @abort() #15
  unreachable

41:                                               ; preds = %36
  store i32 255, ptr %6, align 4, !tbaa !14
  br label %42

42:                                               ; preds = %41, %26
  %43 = load i32, ptr %6, align 4, !tbaa !14
  %44 = shl i32 %43, 24
  %45 = load i32, ptr %7, align 4, !tbaa !14
  %46 = or i32 %44, %45
  store i32 %46, ptr %4, align 4
  br label %47

47:                                               ; preds = %42, %14
  %48 = load i32, ptr %4, align 4
  ret i32 %48
}

; Function Attrs: mustprogress uwtable
define void @_ZN6icu_7712RegexCompile8appendOpEii(ptr noundef nonnull align 8 dereferenceable(512) %0, i32 noundef %1, i32 noundef %2) #1 align 2 {
  %4 = alloca ptr, align 8
  %5 = alloca i32, align 4
  %6 = alloca i32, align 4
  store ptr %0, ptr %4, align 8, !tbaa !23
  store i32 %1, ptr %5, align 4, !tbaa !14
  store i32 %2, ptr %6, align 4, !tbaa !14
  %7 = load ptr, ptr %4, align 8
  %8 = load i32, ptr %5, align 4, !tbaa !14
  %9 = load i32, ptr %6, align 4, !tbaa !14
  %10 = call noundef i32 @_ZN6icu_7712RegexCompile7buildOpEii(ptr noundef nonnull align 8 dereferenceable(512) %7, i32 noundef %8, i32 noundef %9)
  call void @_ZN6icu_7712RegexCompile8appendOpEi(ptr noundef nonnull align 8 dereferenceable(512) %7, i32 noundef %10)
  ret void
}