; Function Attrs: mustprogress uwtable
define void @_ZN6icu_7712RegexCompile8appendOpEii(ptr noundef nonnull readonly align 8 captures(none) dereferenceable(512) %0, i32 noundef %1, i32 noundef %2) local_unnamed_addr #1 align 2 {
  %4 = getelementptr inbounds nuw i8, ptr %0, i64 8
  %5 = load ptr, ptr %4, align 8, !tbaa !18
  %6 = load i32, ptr %5, align 4, !tbaa !13
  %7 = icmp slt i32 %6, 1
  br i1 %7, label %8, label %_ZN6icu_7712RegexCompile7buildOpEii.exit

8:                                                ; preds = %3
  %or.cond.i = icmp ugt i32 %1, 255
  br i1 %or.cond.i, label %9, label %10

9:                                                ; preds = %8
  tail call void @abort() #17
  unreachable

10:                                               ; preds = %8
  %11 = icmp sgt i32 %2, 16777215
  br i1 %11, label %12, label %13

12:                                               ; preds = %10
  tail call void @abort() #17
  unreachable

13:                                               ; preds = %10
  %14 = icmp slt i32 %2, 0
  br i1 %14, label %15, label %19

15:                                               ; preds = %13
  %trunc.i = trunc nuw i32 %1 to i8
  switch i8 %trunc.i, label %16 [
    i8 -1, label %17
    i8 0, label %17
  ]

16:                                               ; preds = %15
  tail call void @abort() #17
  unreachable

17:                                               ; preds = %15, %15
  %.not16.i = icmp samesign ugt i32 %2, -16777217
  br i1 %.not16.i, label %19, label %18

18:                                               ; preds = %17
  tail call void @abort() #17
  unreachable

19:                                               ; preds = %17, %13
  %.013.i = phi i32 [ %1, %13 ], [ 255, %17 ]
  %20 = shl nuw i32 %.013.i, 24
  %21 = or i32 %20, %2
  br label %_ZN6icu_7712RegexCompile7buildOpEii.exit

_ZN6icu_7712RegexCompile7buildOpEii.exit:         ; preds = %3, %19
  %.0.i = phi i32 [ %21, %19 ], [ 0, %3 ]
  tail call void @_ZN6icu_7712RegexCompile8appendOpEi(ptr noundef nonnull align 8 dereferenceable(512) %0, i32 noundef %.0.i)
  ret void
}